target datalayout = "e-m:e-p270:32:32-p271:32:32-p272:64:64-i64:64-i128:128-f80:128-n8:16:32:64-S128"
target triple = "x86_64-pc-linux-gnu"

%class.CodeHeap = type { %class.VirtualSpace, %class.VirtualSpace, i64, i64, i64, i32, i64, ptr, ptr, i64, i32, i64, ptr, i32, i32, i32, i32, i32, i32 }
%class.VirtualSpace = type { ptr, ptr, ptr, ptr, i8, i8, ptr, ptr, ptr, ptr, ptr, ptr, i64, i64, i64 }
%class.HeapBlock = type { %union.anon }
%union.anon = type { [1 x i64] }
%"struct.HeapBlock::Header" = type { i32, i8 }

; Function Attrs: mustprogress nounwind uwtable
define linkonce_odr hidden noundef i64 @_ZNK8CodeHeap16segments_to_sizeEm(ptr noundef nonnull align 8 dereferenceable(336) %0, i64 noundef %1) #1 comdat align 2 {
  %3 = alloca ptr, align 8
  %4 = alloca i64, align 8
  store ptr %0, ptr %3, align 8
  store i64 %1, ptr %4, align 8
  %5 = load ptr, ptr %3, align 8
  %6 = load i64, ptr %4, align 8
  %7 = getelementptr inbounds %class.CodeHeap, ptr %5, i32 0, i32 5
  %8 = load i32, ptr %7, align 8
  %9 = zext i32 %8 to i64
  %10 = shl i64 %6, %9
  ret i64 %10
}

; Function Attrs: mustprogress nounwind uwtable
define linkonce_odr hidden noundef ptr @_ZNK8CodeHeap11address_forEm(ptr noundef nonnull align 8 dereferenceable(336) %0, i64 noundef %1) #1 comdat align 2 {
  %3 = alloca ptr, align 8
  %4 = alloca i64, align 8
  store ptr %0, ptr %3, align 8
  store i64 %1, ptr %4, align 8
  %5 = load ptr, ptr %3, align 8
  %6 = getelementptr inbounds %class.CodeHeap, ptr %5, i32 0, i32 0
  %7 = call noundef ptr @_ZNK12VirtualSpace3lowEv(ptr noundef nonnull align 8 dereferenceable(112) %6)
  %8 = load i64, ptr %4, align 8
  %9 = call noundef i64 @_ZNK8CodeHeap16segments_to_sizeEm(ptr noundef nonnull align 8 dereferenceable(336) %5, i64 noundef %8)
  %10 = getelementptr inbounds i8, ptr %7, i64 %9
  ret ptr %10
}

; Function Attrs: mustprogress nounwind uwtable
define linkonce_odr hidden noundef ptr @_ZNK12VirtualSpace3lowEv(ptr noundef nonnull align 8 dereferenceable(112) %0) #1 comdat align 2 {
  %2 = alloca ptr, align 8
  store ptr %0, ptr %2, align 8
  %3 = load ptr, ptr %2, align 8
  %4 = getelementptr inbounds %class.VirtualSpace, ptr %3, i32 0, i32 2
  %5 = load ptr, ptr %4, align 8
  ret ptr %5
}

; Function Attrs: mustprogress nounwind uwtable
define linkonce_odr hidden noundef ptr @_ZNK8CodeHeap8block_atEm(ptr noundef nonnull align 8 dereferenceable(336) %0, i64 noundef %1) #1 comdat align 2 {
  %3 = alloca ptr, align 8
  %4 = alloca i64, align 8
  store ptr %0, ptr %3, align 8
  store i64 %1, ptr %4, align 8
  %5 = load ptr, ptr %3, align 8
  %6 = load i64, ptr %4, align 8
  %7 = call noundef ptr @_ZNK8CodeHeap11address_forEm(ptr noundef nonnull align 8 dereferenceable(336) %5, i64 noundef %6)
  ret ptr %7
}

; Function Attrs: mustprogress nounwind uwtable
define linkonce_odr hidden noundef i64 @_ZNK9HeapBlock6lengthEv(ptr noundef nonnull align 8 dereferenceable(8) %0) #1 comdat align 2 {
  %2 = alloca ptr, align 8
  store ptr %0, ptr %2, align 8
  %3 = load ptr, ptr %2, align 8
  %4 = getelementptr inbounds %class.HeapBlock, ptr %3, i32 0, i32 0
  %5 = getelementptr inbounds %"struct.HeapBlock::Header", ptr %4, i32 0, i32 0
  %6 = load i32, ptr %5, align 8
  %7 = zext i32 %6 to i64
  ret i64 %7
}

; Function Attrs: mustprogress nounwind uwtable
define linkonce_odr hidden noundef i64 @_ZNK8CodeHeap11segment_forEPv(ptr noundef nonnull align 8 dereferenceable(336) %0, ptr noundef %1) #1 comdat align 2 {
  %3 = alloca ptr, align 8
  %4 = alloca ptr, align 8
  store ptr %0, ptr %3, align 8
  store ptr %1, ptr %4, align 8
  %5 = load ptr, ptr %3, align 8
  %6 = load ptr, ptr %4, align 8
  %7 = getelementptr inbounds %class.CodeHeap, ptr %5, i32 0, i32 0
  %8 = call noundef ptr @_ZNK12VirtualSpace3lowEv(ptr noundef nonnull align 8 dereferenceable(112) %7)
  %9 = ptrtoint ptr %6 to i64
  %10 = ptrtoint ptr %8 to i64
  %11 = sub i64 %9, %10
  %12 = getelementptr inbounds %class.CodeHeap, ptr %5, i32 0, i32 5
  %13 = load i32, ptr %12, align 8
  %14 = zext i32 %13 to i64
  %15 = ashr i64 %11, %14
  ret i64 %15
}

; Function Attrs: mustprogress nounwind uwtable
define hidden noundef ptr @_ZNK8CodeHeap10next_blockEP9HeapBlock(ptr noundef nonnull align 8 dereferenceable(336) %0, ptr noundef %1) #1 align 2 {
  %3 = alloca ptr, align 8
  %4 = alloca ptr, align 8
  %5 = alloca ptr, align 8
  %6 = alloca i64, align 8
  store ptr %0, ptr %4, align 8
  store ptr %1, ptr %5, align 8
  %7 = load ptr, ptr %4, align 8
  %8 = load ptr, ptr %5, align 8
  %9 = icmp eq ptr %8, null
  br i1 %9, label %10, label %11

10:                                               ; preds = %2
  store ptr null, ptr %3, align 8
  br label %25

11:                                               ; preds = %2
  %12 = load ptr, ptr %5, align 8
  %13 = call noundef i64 @_ZNK8CodeHeap11segment_forEPv(ptr noundef nonnull align 8 dereferenceable(336) %7, ptr noundef %12)
  %14 = load ptr, ptr %5, align 8
  %15 = call noundef i64 @_ZNK9HeapBlock6lengthEv(ptr noundef nonnull align 8 dereferenceable(8) %14)
  %16 = add i64 %13, %15
  store i64 %16, ptr %6, align 8
  %17 = load i64, ptr %6, align 8
  %18 = getelementptr inbounds %class.CodeHeap, ptr %7, i32 0, i32 6
  %19 = load i64, ptr %18, align 8
  %20 = icmp ult i64 %17, %19
  br i1 %20, label %21, label %24

21:                                               ; preds = %11
  %22 = load i64, ptr %6, align 8
  %23 = call noundef ptr @_ZNK8CodeHeap8block_atEm(ptr noundef nonnull align 8 dereferenceable(336) %7, i64 noundef %22)
  store ptr %23, ptr %3, align 8
  br label %25

24:                                               ; preds = %11
  store ptr null, ptr %3, align 8
  br label %25

25:                                               ; preds = %24, %21, %10
  %26 = load ptr, ptr %3, align 8
  ret ptr %26
}