; Function Attrs: mustprogress nofree norecurse nosync nounwind willreturn memory(argmem: read) uwtable
define hidden noundef ptr @_ZNK8CodeHeap10next_blockEP9HeapBlock(ptr nocapture noundef nonnull readonly align 8 dereferenceable(336) %0, ptr noundef %1) local_unnamed_addr #9 align 2 {
  %3 = icmp eq ptr %1, null
  br i1 %3, label %23, label %4

4:                                                ; preds = %2
  %5 = getelementptr inbounds i8, ptr %0, i64 16
  %6 = load ptr, ptr %5, align 8
  %7 = ptrtoint ptr %1 to i64
  %8 = ptrtoint ptr %6 to i64
  %9 = sub i64 %7, %8
  %10 = getelementptr inbounds i8, ptr %0, i64 248
  %11 = load i32, ptr %10, align 8
  %12 = zext nneg i32 %11 to i64
  %13 = ashr i64 %9, %12
  %14 = load i32, ptr %1, align 8
  %15 = zext i32 %14 to i64
  %16 = add i64 %13, %15
  %17 = getelementptr inbounds i8, ptr %0, i64 256
  %18 = load i64, ptr %17, align 8
  %19 = icmp ult i64 %16, %18
  br i1 %19, label %20, label %23

20:                                               ; preds = %4
  %21 = shl i64 %16, %12
  %22 = getelementptr inbounds i8, ptr %6, i64 %21
  br label %23

23:                                               ; preds = %4, %2, %20
  %.0 = phi ptr [ %22, %20 ], [ null, %2 ], [ null, %4 ]
  ret ptr %.0
}